; Function Attrs: mustprogress null_pointer_is_valid sspstrong uwtable
define void @_ZN11CaptureFile19captureFileCallbackEiPvS0_(i32 noundef %0, ptr noundef %1, ptr noundef %2) #5 align 2 {
  %.not = icmp eq ptr %2, null
  br i1 %.not, label %5, label %4

4:                                                ; preds = %3
  tail call void @_ZN11CaptureFile16captureFileEventEiPv(ptr noundef nonnull align 8 dereferenceable_or_null(48) %2, i32 noundef %0, ptr noundef %1)
  br label %5

5:                                                ; preds = %3, %4
  ret void
}